target datalayout = "e-m:e-p270:32:32-p271:32:32-p272:64:64-i64:64-i128:128-f80:128-n8:16:32:64-S128"
target triple = "x86_64-unknown-linux-gnu"

; Function Attrs: mustprogress uwtable
define noundef i32 @_ZN6icu_7517UCharsTrieBuilder18writeValueAndFinalEia(ptr noundef nonnull align 8 dereferenceable(112) %this, i32 noundef %i, i8 noundef signext %isFinal) unnamed_addr #0 align 2 {
entry:
  %retval = alloca i32, align 4
  %this.addr = alloca ptr, align 8
  %i.addr = alloca i32, align 4
  %isFinal.addr = alloca i8, align 1
  %intUnits = alloca [3 x i16], align 2
  %length = alloca i32, align 4
  store ptr %this, ptr %this.addr, align 8
  store i32 %i, ptr %i.addr, align 4
  store i8 %isFinal, ptr %isFinal.addr, align 1
  %this1 = load ptr, ptr %this.addr, align 8
  %0 = load i32, ptr %i.addr, align 4
  %cmp = icmp sle i32 0, %0
  br i1 %cmp, label %land.lhs.true, label %if.end

land.lhs.true:                                    ; preds = %entry
  %1 = load i32, ptr %i.addr, align 4
  %cmp2 = icmp sle i32 %1, 16383
  br i1 %cmp2, label %if.then, label %if.end

if.then:                                          ; preds = %land.lhs.true
  %2 = load i32, ptr %i.addr, align 4
  %3 = load i8, ptr %isFinal.addr, align 1
  %conv = sext i8 %3 to i32
  %shl = shl i32 %conv, 15
  %or = or i32 %2, %shl
  %vtable = load ptr, ptr %this1, align 8
  %vfn = getelementptr inbounds ptr, ptr %vtable, i64 15
  %4 = load ptr, ptr %vfn, align 8
  %call = call noundef i32 %4(ptr noundef nonnull align 8 dereferenceable(112) %this1, i32 noundef %or)
  store i32 %call, ptr %retval, align 4
  br label %return

if.end:                                           ; preds = %land.lhs.true, %entry
  %5 = load i32, ptr %i.addr, align 4
  %cmp3 = icmp slt i32 %5, 0
  br i1 %cmp3, label %if.then5, label %lor.lhs.false

lor.lhs.false:                                    ; preds = %if.end
  %6 = load i32, ptr %i.addr, align 4
  %cmp4 = icmp sgt i32 %6, 1073676287
  br i1 %cmp4, label %if.then5, label %if.else

if.then5:                                         ; preds = %lor.lhs.false, %if.end
  %arrayidx = getelementptr inbounds [3 x i16], ptr %intUnits, i64 0, i64 0
  store i16 32767, ptr %arrayidx, align 2
  %7 = load i32, ptr %i.addr, align 4
  %shr = lshr i32 %7, 16
  %conv6 = trunc i32 %shr to i16
  %arrayidx7 = getelementptr inbounds [3 x i16], ptr %intUnits, i64 0, i64 1
  store i16 %conv6, ptr %arrayidx7, align 2
  %8 = load i32, ptr %i.addr, align 4
  %conv8 = trunc i32 %8 to i16
  %arrayidx9 = getelementptr inbounds [3 x i16], ptr %intUnits, i64 0, i64 2
  store i16 %conv8, ptr %arrayidx9, align 2
  store i32 3, ptr %length, align 4
  br label %if.end15

if.else:                                          ; preds = %lor.lhs.false
  %9 = load i32, ptr %i.addr, align 4
  %shr10 = ashr i32 %9, 16
  %add = add nsw i32 16384, %shr10
  %conv11 = trunc i32 %add to i16
  %arrayidx12 = getelementptr inbounds [3 x i16], ptr %intUnits, i64 0, i64 0
  store i16 %conv11, ptr %arrayidx12, align 2
  %10 = load i32, ptr %i.addr, align 4
  %conv13 = trunc i32 %10 to i16
  %arrayidx14 = getelementptr inbounds [3 x i16], ptr %intUnits, i64 0, i64 1
  store i16 %conv13, ptr %arrayidx14, align 2
  store i32 2, ptr %length, align 4
  br label %if.end15

if.end15:                                         ; preds = %if.else, %if.then5
  %arrayidx16 = getelementptr inbounds [3 x i16], ptr %intUnits, i64 0, i64 0
  %11 = load i16, ptr %arrayidx16, align 2
  %conv17 = zext i16 %11 to i32
  %12 = load i8, ptr %isFinal.addr, align 1
  %conv18 = sext i8 %12 to i32
  %shl19 = shl i32 %conv18, 15
  %or20 = or i32 %conv17, %shl19
  %conv21 = trunc i32 %or20 to i16
  %arrayidx22 = getelementptr inbounds [3 x i16], ptr %intUnits, i64 0, i64 0
  store i16 %conv21, ptr %arrayidx22, align 2
  %arraydecay = getelementptr inbounds [3 x i16], ptr %intUnits, i64 0, i64 0
  %13 = load i32, ptr %length, align 4
  %call23 = call noundef i32 @_ZN6icu_7517UCharsTrieBuilder5writeEPKDsi(ptr noundef nonnull align 8 dereferenceable(112) %this1, ptr noundef %arraydecay, i32 noundef %13)
  store i32 %call23, ptr %retval, align 4
  br label %return

return:                                           ; preds = %if.end15, %if.then
  %14 = load i32, ptr %retval, align 4
  ret i32 %14
}