; Function Attrs: mustprogress uwtable
define noundef i32 @_ZN6icu_7517UCharsTrieBuilder18writeValueAndFinalEia(ptr noundef nonnull align 8 dereferenceable(112) %this, i32 noundef %i, i8 noundef signext %isFinal) unnamed_addr #0 align 2 {
entry:
  %intUnits = alloca [3 x i16], align 2
  %or.cond = icmp ult i32 %i, 16384
  br i1 %or.cond, label %if.then, label %if.end

if.then:                                          ; preds = %entry
  %conv = sext i8 %isFinal to i32
  %shl = shl nsw i32 %conv, 15
  %or = or disjoint i32 %shl, %i
  %vtable = load ptr, ptr %this, align 8
  %vfn = getelementptr inbounds i8, ptr %vtable, i64 120
  %0 = load ptr, ptr %vfn, align 8
  %call = tail call noundef i32 %0(ptr noundef nonnull align 8 dereferenceable(112) %this, i32 noundef %or)
  br label %return

if.end:                                           ; preds = %entry
  %or.cond1 = icmp ugt i32 %i, 1073676287
  %shr = lshr i32 %i, 16
  br i1 %or.cond1, label %if.then5, label %if.else

if.then5:                                         ; preds = %if.end
  %conv8 = trunc i32 %i to i16
  %arrayidx9 = getelementptr inbounds i8, ptr %intUnits, i64 4
  store i16 %conv8, ptr %arrayidx9, align 2
  br label %if.end15

if.else:                                          ; preds = %if.end
  %1 = trunc i32 %shr to i16
  %conv11 = or disjoint i16 %1, 16384
  br label %if.end15

if.end15:                                         ; preds = %if.else, %if.then5
  %conv11.sink = phi i16 [ 32767, %if.then5 ], [ %conv11, %if.else ]
  %conv13.sink.in = phi i32 [ %shr, %if.then5 ], [ %i, %if.else ]
  %length.0 = phi i32 [ 3, %if.then5 ], [ 2, %if.else ]
  %conv13.sink = trunc i32 %conv13.sink.in to i16
  %2 = getelementptr inbounds i8, ptr %intUnits, i64 2
  store i16 %conv13.sink, ptr %2, align 2
  %conv18 = zext i8 %isFinal to i16
  %shl19 = shl i16 %conv18, 15
  %or20 = or i16 %conv11.sink, %shl19
  store i16 %or20, ptr %intUnits, align 2
  %call23 = call noundef i32 @_ZN6icu_7517UCharsTrieBuilder5writeEPKDsi(ptr noundef nonnull align 8 dereferenceable(112) %this, ptr noundef nonnull %intUnits, i32 noundef %length.0)
  br label %return

return:                                           ; preds = %if.end15, %if.then
  %retval.0 = phi i32 [ %call, %if.then ], [ %call23, %if.end15 ]
  ret i32 %retval.0
}